; Function Attrs: mustprogress nofree norecurse nosync nounwind willreturn memory(argmem: write) uwtable
define void @_Z28RowPairFunctionFromDenseRowsPPKvii(ptr dead_on_unwind noalias writable writeonly sret(%"class.std::function.157") align 8 captures(none) initializes((0, 32)) %0, ptr noundef %1, i32 noundef %2, i32 noundef %3) local_unnamed_addr #30 personality ptr @__gxx_personality_v0 {
  %5 = getelementptr inbounds nuw i8, ptr %0, i64 16
  %6 = getelementptr inbounds nuw i8, ptr %0, i64 24
  store ptr %1, ptr %0, align 8, !tbaa !1191
  %.sroa.4.0..sroa_idx = getelementptr inbounds nuw i8, ptr %0, i64 8
  store i32 %2, ptr %.sroa.4.0..sroa_idx, align 8, !tbaa !52
  %.sroa.5.0..sroa_idx = getelementptr inbounds nuw i8, ptr %0, i64 12
  store i32 %3, ptr %.sroa.5.0..sroa_idx, align 4, !tbaa !52
  store ptr @"_ZNSt17_Function_handlerIFSt6vectorISt4pairIidESaIS2_EEiEZ28RowPairFunctionFromDenseRowsPPKviiE3$_0E9_M_invokeERKSt9_Any_dataOi", ptr %6, align 8, !tbaa !371
  store ptr @"_ZNSt17_Function_handlerIFSt6vectorISt4pairIidESaIS2_EEiEZ28RowPairFunctionFromDenseRowsPPKviiE3$_0E10_M_managerERSt9_Any_dataRKSB_St18_Manager_operation", ptr %5, align 8, !tbaa !200
  ret void
}